target datalayout = "e-m:e-p270:32:32-p271:32:32-p272:64:64-i64:64-i128:128-f80:128-n8:16:32:64-S128"
target triple = "x86_64-pc-linux-gnu"

%class.debug_module_t = type <{ %class.abstract_device_t, %struct.debug_module_config_t, i32, i32, i32, i32, ptr, [4 x i8], [48 x i8], [4 x i8], ptr, [8 x i8], %"class.std::vector", [1024 x i8], %struct.dmcontrol_t, %struct.dmstatus_t, %struct.abstractcs_t, %struct.abstractauto_t, i32, i16, [2 x i8], %"class.std::vector.0", %struct.sbcs_t, [4 x i32], [4 x i32], i32, i32, i8, [3 x i8], i32, [2 x i8], [2 x i8], i32, i32, [4 x i8] }>
%class.abstract_device_t = type { ptr }
%struct.debug_module_config_t = type <{ i32, i32, i8, [3 x i8], i32, i8, i8, i8, i8, i8, [3 x i8] }>
%"class.std::vector" = type { %"struct.std::_Vector_base" }
%"struct.std::_Vector_base" = type { %"struct.std::_Vector_base<hart_debug_state_t, std::allocator<hart_debug_state_t>>::_Vector_impl" }
%"struct.std::_Vector_base<hart_debug_state_t, std::allocator<hart_debug_state_t>>::_Vector_impl" = type { %"struct.std::_Vector_base<hart_debug_state_t, std::allocator<hart_debug_state_t>>::_Vector_impl_data" }
%"struct.std::_Vector_base<hart_debug_state_t, std::allocator<hart_debug_state_t>>::_Vector_impl_data" = type { ptr, ptr, ptr }
%struct.dmcontrol_t = type { i8, i8, i8, i32, i8, i8, i8 }
%struct.dmstatus_t = type { i8, i8, i8, i8, i8, i8, i8, i8, i8, i8, i8, i8, i8, i8, i8, i8, i32 }
%struct.abstractcs_t = type { i8, i32, i32, i32 }
%struct.abstractauto_t = type { i32, i32 }
%"class.std::vector.0" = type { %"struct.std::_Bvector_base" }
%"struct.std::_Bvector_base" = type { %"struct.std::_Bvector_base<std::allocator<bool>>::_Bvector_impl" }
%"struct.std::_Bvector_base<std::allocator<bool>>::_Bvector_impl" = type { %"struct.std::_Bvector_base<std::allocator<bool>>::_Bvector_impl_data" }
%"struct.std::_Bvector_base<std::allocator<bool>>::_Bvector_impl_data" = type { %"struct.std::_Bit_iterator", %"struct.std::_Bit_iterator", ptr }
%"struct.std::_Bit_iterator" = type { %"struct.std::_Bit_iterator_base.base", [4 x i8] }
%"struct.std::_Bit_iterator_base.base" = type <{ ptr, i32 }>
%struct.sbcs_t = type { i32, i8, i32, i8, i8, i32, i32, i8, i8, i8, i8, i8, i8 }

; Function Attrs: mustprogress nounwind uwtable
define noundef zeroext i1 @_ZNK14debug_module_t7sb_busyEv(ptr noundef nonnull align 8 dereferenceable(1372) %0) #7 align 2 {
  %2 = alloca ptr, align 8
  store ptr %0, ptr %2, align 8, !tbaa !3
  %3 = load ptr, ptr %2, align 8
  %4 = getelementptr inbounds nuw %class.debug_module_t, ptr %3, i32 0, i32 32
  %5 = load i32, ptr %4, align 4, !tbaa !53
  %6 = icmp ugt i32 %5, 0
  br i1 %6, label %11, label %7

7:                                                ; preds = %1
  %8 = getelementptr inbounds nuw %class.debug_module_t, ptr %3, i32 0, i32 33
  %9 = load i32, ptr %8, align 8, !tbaa !54
  %10 = icmp ugt i32 %9, 0
  br label %11

11:                                               ; preds = %7, %1
  %12 = phi i1 [ true, %1 ], [ %10, %7 ]
  ret i1 %12
}