; Function Attrs: mustprogress nofree norecurse nosync nounwind willreturn memory(argmem: read) uwtable
define noundef zeroext i1 @_ZNK14debug_module_t7sb_busyEv(ptr noundef nonnull readonly align 8 captures(none) dereferenceable(1372) %0) local_unnamed_addr #14 align 2 {
  %2 = getelementptr inbounds nuw i8, ptr %0, i64 1364
  %3 = load i32, ptr %2, align 4, !tbaa !59
  %.not = icmp ne i32 %3, 0
  %4 = getelementptr inbounds nuw i8, ptr %0, i64 1368
  %5 = load i32, ptr %4, align 8
  %6 = icmp ne i32 %5, 0
  %7 = select i1 %.not, i1 true, i1 %6
  ret i1 %7
}